target datalayout = "e-m:e-p270:32:32-p271:32:32-p272:64:64-i64:64-i128:128-f80:128-n8:16:32:64-S128"
target triple = "x86_64-pc-linux-gnu"

%"class.std::__shared_count" = type { ptr }
%"class.gmx::analysismodules::(anonymous namespace)::Scattering" = type { %"class.gmx::TrajectoryAnalysisModule", %"class.std::vector", %"class.std::__cxx11::basic_string", double, double, double, double, double, i32, i8, i8, i8, i8, i32, %"class.gmx::AnalysisData", %"class.std::shared_ptr", %"class.std::vector.29", %"class.std::vector.29", %"class.std::vector.34" }
%"class.gmx::TrajectoryAnalysisModule" = type { ptr, %"class.std::unique_ptr.2" }
%"class.std::unique_ptr.2" = type { %"struct.std::__uniq_ptr_data.3" }
%"struct.std::__uniq_ptr_data.3" = type { %"class.std::__uniq_ptr_impl.4" }
%"class.std::__uniq_ptr_impl.4" = type { %"class.std::tuple.5" }
%"class.std::tuple.5" = type { %"struct.std::_Tuple_impl.6" }
%"struct.std::_Tuple_impl.6" = type { %"struct.std::_Head_base.9" }
%"struct.std::_Head_base.9" = type { ptr }
%"class.std::vector" = type { %"struct.std::_Vector_base" }
%"struct.std::_Vector_base" = type { %"struct.std::_Vector_base<gmx::Selection, std::allocator<gmx::Selection>>::_Vector_impl" }
%"struct.std::_Vector_base<gmx::Selection, std::allocator<gmx::Selection>>::_Vector_impl" = type { %"struct.std::_Vector_base<gmx::Selection, std::allocator<gmx::Selection>>::_Vector_impl_data" }
%"struct.std::_Vector_base<gmx::Selection, std::allocator<gmx::Selection>>::_Vector_impl_data" = type { ptr, ptr, ptr }
%"class.std::__cxx11::basic_string" = type { %"struct.std::__cxx11::basic_string<char>::_Alloc_hider", i64, %union.anon }
%"struct.std::__cxx11::basic_string<char>::_Alloc_hider" = type { ptr }
%union.anon = type { i64, [8 x i8] }
%"class.gmx::AnalysisData" = type { %"class.gmx::AbstractAnalysisData", %"class.std::unique_ptr.21" }
%"class.gmx::AbstractAnalysisData" = type { ptr, %"class.std::unique_ptr.13" }
%"class.std::unique_ptr.13" = type { %"struct.std::__uniq_ptr_data.14" }
%"struct.std::__uniq_ptr_data.14" = type { %"class.std::__uniq_ptr_impl.15" }
%"class.std::__uniq_ptr_impl.15" = type { %"class.std::tuple.16" }
%"class.std::tuple.16" = type { %"struct.std::_Tuple_impl.17" }
%"struct.std::_Tuple_impl.17" = type { %"struct.std::_Head_base.20" }
%"struct.std::_Head_base.20" = type { ptr }
%"class.std::unique_ptr.21" = type { %"struct.std::__uniq_ptr_data.22" }
%"struct.std::__uniq_ptr_data.22" = type { %"class.std::__uniq_ptr_impl.23" }
%"class.std::__uniq_ptr_impl.23" = type { %"class.std::tuple.24" }
%"class.std::tuple.24" = type { %"struct.std::_Tuple_impl.25" }
%"struct.std::_Tuple_impl.25" = type { %"struct.std::_Head_base.28" }
%"struct.std::_Head_base.28" = type { ptr }
%"class.std::shared_ptr" = type { %"class.std::__shared_ptr" }
%"class.std::__shared_ptr" = type { ptr, %"class.std::__shared_count" }
%"class.std::vector.29" = type { %"struct.std::_Vector_base.30" }
%"struct.std::_Vector_base.30" = type { %"struct.std::_Vector_base<double, std::allocator<double>>::_Vector_impl" }
%"struct.std::_Vector_base<double, std::allocator<double>>::_Vector_impl" = type { %"struct.std::_Vector_base<double, std::allocator<double>>::_Vector_impl_data" }
%"struct.std::_Vector_base<double, std::allocator<double>>::_Vector_impl_data" = type { ptr, ptr, ptr }
%"class.std::vector.34" = type { %"struct.std::_Vector_base.35" }
%"struct.std::_Vector_base.35" = type { %"struct.std::_Vector_base<std::unique_ptr<gmx::ComputeDebyeScattering>, std::allocator<std::unique_ptr<gmx::ComputeDebyeScattering>>>::_Vector_impl" }
%"struct.std::_Vector_base<std::unique_ptr<gmx::ComputeDebyeScattering>, std::allocator<std::unique_ptr<gmx::ComputeDebyeScattering>>>::_Vector_impl" = type { %"struct.std::_Vector_base<std::unique_ptr<gmx::ComputeDebyeScattering>, std::allocator<std::unique_ptr<gmx::ComputeDebyeScattering>>>::_Vector_impl_data" }
%"struct.std::_Vector_base<std::unique_ptr<gmx::ComputeDebyeScattering>, std::allocator<std::unique_ptr<gmx::ComputeDebyeScattering>>>::_Vector_impl_data" = type { ptr, ptr, ptr }

@stdout = external global ptr, align 8
@.str.46 = private unnamed_addr constant [13 x i8] c"Shvetsov2013\00", align 1
@.str.47 = private unnamed_addr constant [12 x i8] c"Cromer1968a\00", align 1

; Function Attrs: mustprogress uwtable
define internal void @_ZN3gmx15analysismodules12_GLOBAL__N_110Scattering14finishAnalysisEi(ptr noundef nonnull align 8 dereferenceable(240) %0, i32 noundef %1) unnamed_addr #0 align 2 {
  %3 = alloca ptr, align 8
  %4 = alloca i32, align 4
  store ptr %0, ptr %3, align 8, !tbaa !4
  store i32 %1, ptr %4, align 4, !tbaa !111
  %5 = load ptr, ptr %3, align 8
  %6 = load ptr, ptr @stdout, align 8, !tbaa !141
  call void @_Z11please_citeP8_IO_FILEPKc(ptr noundef %6, ptr noundef @.str.46)
  %7 = getelementptr inbounds nuw %"class.gmx::analysismodules::(anonymous namespace)::Scattering", ptr %5, i32 0, i32 13
  %8 = load i32, ptr %7, align 8, !tbaa !73
  %9 = icmp eq i32 %8, 0
  br i1 %9, label %10, label %12

10:                                               ; preds = %2
  %11 = load ptr, ptr @stdout, align 8, !tbaa !141
  call void @_Z11please_citeP8_IO_FILEPKc(ptr noundef %11, ptr noundef @.str.47)
  br label %12

12:                                               ; preds = %10, %2
  ret void
}