; Function Attrs: mustprogress uwtable
define internal void @_ZN3gmx15analysismodules12_GLOBAL__N_110Scattering14finishAnalysisEi(ptr noundef nonnull readonly align 8 captures(none) dereferenceable(240) %0, i32 %1) unnamed_addr #0 align 2 {
  %3 = load ptr, ptr @stdout, align 8, !tbaa !200
  tail call void @_Z11please_citeP8_IO_FILEPKc(ptr noundef %3, ptr noundef nonnull @.str.46)
  %4 = getelementptr inbounds nuw i8, ptr %0, i64 120
  %5 = load i32, ptr %4, align 8, !tbaa !74
  %6 = icmp eq i32 %5, 0
  br i1 %6, label %7, label %9

7:                                                ; preds = %2
  %8 = load ptr, ptr @stdout, align 8, !tbaa !200
  tail call void @_Z11please_citeP8_IO_FILEPKc(ptr noundef %8, ptr noundef nonnull @.str.47)
  br label %9

9:                                                ; preds = %7, %2
  ret void
}